target datalayout = "e-m:e-p270:32:32-p271:32:32-p272:64:64-i64:64-i128:128-f80:128-n8:16:32:64-S128"
target triple = "x86_64-pc-linux-gnu"

%struct.WebPWorkerInterface = type { ptr, ptr, ptr, ptr, ptr, ptr }
%struct.VP8Decoder = type { i32, i32, ptr, %struct.VP8BitReader, i32, %struct.VP8FrameHeader, %struct.VP8PictureHeader, %struct.VP8FilterHeader, %struct.VP8SegmentHeader, %struct.WebPWorker, i32, i32, i32, %struct.VP8ThreadContext, i32, i32, i32, i32, i32, i32, i32, [8 x %struct.VP8BitReader], i32, %struct.VP8Random, [4 x %struct.VP8QuantMatrix], %struct.VP8Proba, i32, i8, ptr, [4 x i8], ptr, ptr, ptr, ptr, ptr, ptr, ptr, i32, i32, ptr, i64, i32, i32, ptr, i32, [4 x [2 x %struct.VP8FInfo]], ptr, ptr, i64, i32, ptr, ptr, ptr, i32 }
%struct.VP8BitReader = type { i64, i32, i32, ptr, ptr, ptr, i32 }
%struct.VP8FrameHeader = type { i8, i8, i8, i32 }
%struct.VP8PictureHeader = type { i16, i16, i8, i8, i8, i8 }
%struct.VP8FilterHeader = type { i32, i32, i32, i32, [4 x i32], [4 x i32] }
%struct.VP8SegmentHeader = type { i32, i32, i32, [4 x i8], [4 x i8] }
%struct.WebPWorker = type { ptr, i32, ptr, ptr, ptr, i32 }
%struct.VP8ThreadContext = type { i32, i32, i32, ptr, ptr, %struct.VP8Io }
%struct.VP8Io = type { i32, i32, i32, i32, i32, ptr, ptr, ptr, i32, i32, ptr, ptr, ptr, ptr, i32, i64, ptr, i32, i32, i32, i32, i32, i32, i32, i32, i32, ptr }
%struct.VP8Random = type { i32, i32, [55 x i32], i32 }
%struct.VP8QuantMatrix = type { [2 x i32], [2 x i32], [2 x i32], i32, i32 }
%struct.VP8Proba = type { [3 x i8], [4 x [8 x %struct.VP8BandProbas]], [4 x [17 x ptr]] }
%struct.VP8BandProbas = type { [3 x [11 x i8]] }
%struct.VP8FInfo = type { i8, i8, i8, i8 }
%struct.VP8MB = type { i8, i8 }

@.str.13 = private unnamed_addr constant [37 x i8] c"NULL VP8Io parameter in VP8Decode().\00", align 1
@.str.14 = private unnamed_addr constant [41 x i8] c"Premature end-of-partition0 encountered.\00", align 1
@.str.15 = private unnamed_addr constant [35 x i8] c"Premature end-of-file encountered.\00", align 1
@.str.16 = private unnamed_addr constant [16 x i8] c"Output aborted.\00", align 1

; Function Attrs: nounwind uwtable
define hidden void @VP8InitScanline(ptr noundef %0) #0 {
  %2 = alloca ptr, align 8
  %3 = alloca ptr, align 8
  store ptr %0, ptr %2, align 8, !tbaa !10
  call void @llvm.lifetime.start.p0(i64 8, ptr %3) #8
  %4 = load ptr, ptr %2, align 8, !tbaa !10
  %5 = getelementptr inbounds nuw %struct.VP8Decoder, ptr %4, i32 0, i32 31
  %6 = load ptr, ptr %5, align 8, !tbaa !87
  %7 = getelementptr inbounds %struct.VP8MB, ptr %6, i64 -1
  store ptr %7, ptr %3, align 8, !tbaa !33
  %8 = load ptr, ptr %3, align 8, !tbaa !33
  %9 = getelementptr inbounds nuw %struct.VP8MB, ptr %8, i32 0, i32 0
  store i8 0, ptr %9, align 1, !tbaa !93
  %10 = load ptr, ptr %3, align 8, !tbaa !33
  %11 = getelementptr inbounds nuw %struct.VP8MB, ptr %10, i32 0, i32 1
  store i8 0, ptr %11, align 1, !tbaa !96
  %12 = load ptr, ptr %2, align 8, !tbaa !10
  %13 = getelementptr inbounds nuw %struct.VP8Decoder, ptr %12, i32 0, i32 29
  %14 = getelementptr inbounds [4 x i8], ptr %13, i64 0, i64 0
  call void @llvm.memset.p0.i64(ptr align 8 %14, i8 0, i64 4, i1 false)
  %15 = load ptr, ptr %2, align 8, !tbaa !10
  %16 = getelementptr inbounds nuw %struct.VP8Decoder, ptr %15, i32 0, i32 41
  store i32 0, ptr %16, align 8, !tbaa !88
  call void @llvm.lifetime.end.p0(i64 8, ptr %3) #8
  ret void
}

; Function Attrs: nounwind uwtable
define hidden void @VP8Clear(ptr noundef %0) #0 {
  %2 = alloca ptr, align 8
  store ptr %0, ptr %2, align 8, !tbaa !10
  %3 = load ptr, ptr %2, align 8, !tbaa !10
  %4 = icmp eq ptr %3, null
  br i1 %4, label %5, label %6

5:                                                ; preds = %1
  br label %24

6:                                                ; preds = %1
  %7 = call ptr @WebPGetWorkerInterface()
  %8 = getelementptr inbounds nuw %struct.WebPWorkerInterface, ptr %7, i32 0, i32 5
  %9 = load ptr, ptr %8, align 8, !tbaa !34
  %10 = load ptr, ptr %2, align 8, !tbaa !10
  %11 = getelementptr inbounds nuw %struct.VP8Decoder, ptr %10, i32 0, i32 9
  call void %9(ptr noundef %11)
  %12 = load ptr, ptr %2, align 8, !tbaa !10
  call void @WebPDeallocateAlphaMemory(ptr noundef %12)
  %13 = load ptr, ptr %2, align 8, !tbaa !10
  %14 = getelementptr inbounds nuw %struct.VP8Decoder, ptr %13, i32 0, i32 39
  %15 = load ptr, ptr %14, align 8, !tbaa !35
  call void @WebPSafeFree(ptr noundef %15)
  %16 = load ptr, ptr %2, align 8, !tbaa !10
  %17 = getelementptr inbounds nuw %struct.VP8Decoder, ptr %16, i32 0, i32 39
  store ptr null, ptr %17, align 8, !tbaa !35
  %18 = load ptr, ptr %2, align 8, !tbaa !10
  %19 = getelementptr inbounds nuw %struct.VP8Decoder, ptr %18, i32 0, i32 40
  store i64 0, ptr %19, align 8, !tbaa !36
  %20 = load ptr, ptr %2, align 8, !tbaa !10
  %21 = getelementptr inbounds nuw %struct.VP8Decoder, ptr %20, i32 0, i32 3
  call void @llvm.memset.p0.i64(ptr align 8 %21, i8 0, i64 48, i1 false)
  %22 = load ptr, ptr %2, align 8, !tbaa !10
  %23 = getelementptr inbounds nuw %struct.VP8Decoder, ptr %22, i32 0, i32 1
  store i32 0, ptr %23, align 4, !tbaa !14
  br label %24

24:                                               ; preds = %6, %5
  ret void
}

; Function Attrs: nounwind uwtable
define internal i32 @ParseFrame(ptr noundef %0, ptr noundef %1) #0 {
  %3 = alloca i32, align 4
  %4 = alloca ptr, align 8
  %5 = alloca ptr, align 8
  %6 = alloca ptr, align 8
  %7 = alloca i32, align 4
  store ptr %0, ptr %4, align 8, !tbaa !10
  store ptr %1, ptr %5, align 8, !tbaa !3
  %8 = load ptr, ptr %4, align 8, !tbaa !10
  %9 = getelementptr inbounds nuw %struct.VP8Decoder, ptr %8, i32 0, i32 42
  store i32 0, ptr %9, align 4, !tbaa !116
  br label %10

10:                                               ; preds = %74, %2
  %11 = load ptr, ptr %4, align 8, !tbaa !10
  %12 = getelementptr inbounds nuw %struct.VP8Decoder, ptr %11, i32 0, i32 42
  %13 = load i32, ptr %12, align 4, !tbaa !116
  %14 = load ptr, ptr %4, align 8, !tbaa !10
  %15 = getelementptr inbounds nuw %struct.VP8Decoder, ptr %14, i32 0, i32 19
  %16 = load i32, ptr %15, align 4, !tbaa !117
  %17 = icmp slt i32 %13, %16
  br i1 %17, label %18, label %79

18:                                               ; preds = %10
  call void @llvm.lifetime.start.p0(i64 8, ptr %6) #8
  %19 = load ptr, ptr %4, align 8, !tbaa !10
  %20 = getelementptr inbounds nuw %struct.VP8Decoder, ptr %19, i32 0, i32 21
  %21 = load ptr, ptr %4, align 8, !tbaa !10
  %22 = getelementptr inbounds nuw %struct.VP8Decoder, ptr %21, i32 0, i32 42
  %23 = load i32, ptr %22, align 4, !tbaa !116
  %24 = load ptr, ptr %4, align 8, !tbaa !10
  %25 = getelementptr inbounds nuw %struct.VP8Decoder, ptr %24, i32 0, i32 20
  %26 = load i32, ptr %25, align 8, !tbaa !30
  %27 = and i32 %23, %26
  %28 = zext i32 %27 to i64
  %29 = getelementptr inbounds nuw [8 x %struct.VP8BitReader], ptr %20, i64 0, i64 %28
  store ptr %29, ptr %6, align 8, !tbaa !66
  %30 = load ptr, ptr %4, align 8, !tbaa !10
  %31 = getelementptr inbounds nuw %struct.VP8Decoder, ptr %30, i32 0, i32 3
  %32 = load ptr, ptr %4, align 8, !tbaa !10
  %33 = call i32 @VP8ParseIntraModeRow(ptr noundef %31, ptr noundef %32)
  %34 = icmp ne i32 %33, 0
  br i1 %34, label %38, label %35

35:                                               ; preds = %18
  %36 = load ptr, ptr %4, align 8, !tbaa !10
  %37 = call i32 @VP8SetError(ptr noundef %36, i32 noundef 7, ptr noundef @.str.14)
  store i32 %37, ptr %3, align 4
  store i32 1, ptr %7, align 4
  br label %71

38:                                               ; preds = %18
  br label %39

39:                                               ; preds = %56, %38
  %40 = load ptr, ptr %4, align 8, !tbaa !10
  %41 = getelementptr inbounds nuw %struct.VP8Decoder, ptr %40, i32 0, i32 41
  %42 = load i32, ptr %41, align 8, !tbaa !88
  %43 = load ptr, ptr %4, align 8, !tbaa !10
  %44 = getelementptr inbounds nuw %struct.VP8Decoder, ptr %43, i32 0, i32 14
  %45 = load i32, ptr %44, align 8, !tbaa !52
  %46 = icmp slt i32 %42, %45
  br i1 %46, label %47, label %61

47:                                               ; preds = %39
  %48 = load ptr, ptr %4, align 8, !tbaa !10
  %49 = load ptr, ptr %6, align 8, !tbaa !66
  %50 = call i32 @VP8DecodeMB(ptr noundef %48, ptr noundef %49)
  %51 = icmp ne i32 %50, 0
  br i1 %51, label %55, label %52

52:                                               ; preds = %47
  %53 = load ptr, ptr %4, align 8, !tbaa !10
  %54 = call i32 @VP8SetError(ptr noundef %53, i32 noundef 7, ptr noundef @.str.15)
  store i32 %54, ptr %3, align 4
  store i32 1, ptr %7, align 4
  br label %71

55:                                               ; preds = %47
  br label %56

56:                                               ; preds = %55
  %57 = load ptr, ptr %4, align 8, !tbaa !10
  %58 = getelementptr inbounds nuw %struct.VP8Decoder, ptr %57, i32 0, i32 41
  %59 = load i32, ptr %58, align 8, !tbaa !88
  %60 = add nsw i32 %59, 1
  store i32 %60, ptr %58, align 8, !tbaa !88
  br label %39, !llvm.loop !118

61:                                               ; preds = %39
  %62 = load ptr, ptr %4, align 8, !tbaa !10
  call void @VP8InitScanline(ptr noundef %62)
  %63 = load ptr, ptr %4, align 8, !tbaa !10
  %64 = load ptr, ptr %5, align 8, !tbaa !3
  %65 = call i32 @VP8ProcessRow(ptr noundef %63, ptr noundef %64)
  %66 = icmp ne i32 %65, 0
  br i1 %66, label %70, label %67

67:                                               ; preds = %61
  %68 = load ptr, ptr %4, align 8, !tbaa !10
  %69 = call i32 @VP8SetError(ptr noundef %68, i32 noundef 6, ptr noundef @.str.16)
  store i32 %69, ptr %3, align 4
  store i32 1, ptr %7, align 4
  br label %71

70:                                               ; preds = %61
  store i32 0, ptr %7, align 4
  br label %71

71:                                               ; preds = %70, %67, %52, %35
  call void @llvm.lifetime.end.p0(i64 8, ptr %6) #8
  %72 = load i32, ptr %7, align 4
  switch i32 %72, label %97 [
    i32 0, label %73
    i32 1, label %95
  ]

73:                                               ; preds = %71
  br label %74

74:                                               ; preds = %73
  %75 = load ptr, ptr %4, align 8, !tbaa !10
  %76 = getelementptr inbounds nuw %struct.VP8Decoder, ptr %75, i32 0, i32 42
  %77 = load i32, ptr %76, align 4, !tbaa !116
  %78 = add nsw i32 %77, 1
  store i32 %78, ptr %76, align 4, !tbaa !116
  br label %10, !llvm.loop !119

79:                                               ; preds = %10
  %80 = load ptr, ptr %4, align 8, !tbaa !10
  %81 = getelementptr inbounds nuw %struct.VP8Decoder, ptr %80, i32 0, i32 10
  %82 = load i32, ptr %81, align 8, !tbaa !120
  %83 = icmp sgt i32 %82, 0
  br i1 %83, label %84, label %94

84:                                               ; preds = %79
  %85 = call ptr @WebPGetWorkerInterface()
  %86 = getelementptr inbounds nuw %struct.WebPWorkerInterface, ptr %85, i32 0, i32 2
  %87 = load ptr, ptr %86, align 8, !tbaa !121
  %88 = load ptr, ptr %4, align 8, !tbaa !10
  %89 = getelementptr inbounds nuw %struct.VP8Decoder, ptr %88, i32 0, i32 9
  %90 = call i32 %87(ptr noundef %89)
  %91 = icmp ne i32 %90, 0
  br i1 %91, label %93, label %92

92:                                               ; preds = %84
  store i32 0, ptr %3, align 4
  br label %95

93:                                               ; preds = %84
  br label %94

94:                                               ; preds = %93, %79
  store i32 1, ptr %3, align 4
  br label %95

95:                                               ; preds = %94, %92, %71
  %96 = load i32, ptr %3, align 4
  ret i32 %96

97:                                               ; preds = %71
  unreachable
}

; Function Attrs: nounwind uwtable
define hidden i32 @VP8SetError(ptr noundef %0, i32 noundef %1, ptr noundef %2) #0 {
  %4 = alloca ptr, align 8
  %5 = alloca i32, align 4
  %6 = alloca ptr, align 8
  store ptr %0, ptr %4, align 8, !tbaa !10
  store i32 %1, ptr %5, align 4, !tbaa !8
  store ptr %2, ptr %6, align 8, !tbaa !37
  %7 = load ptr, ptr %4, align 8, !tbaa !10
  %8 = getelementptr inbounds nuw %struct.VP8Decoder, ptr %7, i32 0, i32 0
  %9 = load i32, ptr %8, align 8, !tbaa !31
  %10 = icmp eq i32 %9, 0
  br i1 %10, label %11, label %20

11:                                               ; preds = %3
  %12 = load i32, ptr %5, align 4, !tbaa !8
  %13 = load ptr, ptr %4, align 8, !tbaa !10
  %14 = getelementptr inbounds nuw %struct.VP8Decoder, ptr %13, i32 0, i32 0
  store i32 %12, ptr %14, align 8, !tbaa !31
  %15 = load ptr, ptr %6, align 8, !tbaa !37
  %16 = load ptr, ptr %4, align 8, !tbaa !10
  %17 = getelementptr inbounds nuw %struct.VP8Decoder, ptr %16, i32 0, i32 2
  store ptr %15, ptr %17, align 8, !tbaa !32
  %18 = load ptr, ptr %4, align 8, !tbaa !10
  %19 = getelementptr inbounds nuw %struct.VP8Decoder, ptr %18, i32 0, i32 1
  store i32 0, ptr %19, align 4, !tbaa !14
  br label %20

20:                                               ; preds = %11, %3
  ret i32 0
}

; Function Attrs: nounwind uwtable
define hidden i32 @VP8Decode(ptr noundef %0, ptr noundef %1) #0 {
  %3 = alloca i32, align 4
  %4 = alloca ptr, align 8
  %5 = alloca ptr, align 8
  %6 = alloca i32, align 4
  %7 = alloca i32, align 4
  store ptr %0, ptr %4, align 8, !tbaa !10
  store ptr %1, ptr %5, align 8, !tbaa !3
  call void @llvm.lifetime.start.p0(i64 4, ptr %6) #8
  store i32 0, ptr %6, align 4, !tbaa !8
  %8 = load ptr, ptr %4, align 8, !tbaa !10
  %9 = icmp eq ptr %8, null
  br i1 %9, label %10, label %11

10:                                               ; preds = %2
  store i32 0, ptr %3, align 4
  store i32 1, ptr %7, align 4
  br label %66

11:                                               ; preds = %2
  %12 = load ptr, ptr %5, align 8, !tbaa !3
  %13 = icmp eq ptr %12, null
  br i1 %13, label %14, label %17

14:                                               ; preds = %11
  %15 = load ptr, ptr %4, align 8, !tbaa !10
  %16 = call i32 @VP8SetError(ptr noundef %15, i32 noundef 2, ptr noundef @.str.13)
  store i32 %16, ptr %3, align 4
  store i32 1, ptr %7, align 4
  br label %66

17:                                               ; preds = %11
  %18 = load ptr, ptr %4, align 8, !tbaa !10
  %19 = getelementptr inbounds nuw %struct.VP8Decoder, ptr %18, i32 0, i32 1
  %20 = load i32, ptr %19, align 4, !tbaa !14
  %21 = icmp ne i32 %20, 0
  br i1 %21, label %29, label %22

22:                                               ; preds = %17
  %23 = load ptr, ptr %4, align 8, !tbaa !10
  %24 = load ptr, ptr %5, align 8, !tbaa !3
  %25 = call i32 @VP8GetHeaders(ptr noundef %23, ptr noundef %24)
  %26 = icmp ne i32 %25, 0
  br i1 %26, label %28, label %27

27:                                               ; preds = %22
  store i32 0, ptr %3, align 4
  store i32 1, ptr %7, align 4
  br label %66

28:                                               ; preds = %22
  br label %29

29:                                               ; preds = %28, %17
  %30 = load ptr, ptr %4, align 8, !tbaa !10
  %31 = load ptr, ptr %5, align 8, !tbaa !3
  %32 = call i32 @VP8EnterCritical(ptr noundef %30, ptr noundef %31)
  %33 = icmp eq i32 %32, 0
  %34 = zext i1 %33 to i32
  store i32 %34, ptr %6, align 4, !tbaa !8
  %35 = load i32, ptr %6, align 4, !tbaa !8
  %36 = icmp ne i32 %35, 0
  br i1 %36, label %37, label %57

37:                                               ; preds = %29
  %38 = load i32, ptr %6, align 4, !tbaa !8
  %39 = icmp ne i32 %38, 0
  br i1 %39, label %40, label %44

40:                                               ; preds = %37
  %41 = load ptr, ptr %4, align 8, !tbaa !10
  %42 = load ptr, ptr %5, align 8, !tbaa !3
  %43 = call i32 @VP8InitFrame(ptr noundef %41, ptr noundef %42)
  store i32 %43, ptr %6, align 4, !tbaa !8
  br label %44

44:                                               ; preds = %40, %37
  %45 = load i32, ptr %6, align 4, !tbaa !8
  %46 = icmp ne i32 %45, 0
  br i1 %46, label %47, label %51

47:                                               ; preds = %44
  %48 = load ptr, ptr %4, align 8, !tbaa !10
  %49 = load ptr, ptr %5, align 8, !tbaa !3
  %50 = call i32 @ParseFrame(ptr noundef %48, ptr noundef %49)
  store i32 %50, ptr %6, align 4, !tbaa !8
  br label %51

51:                                               ; preds = %47, %44
  %52 = load ptr, ptr %4, align 8, !tbaa !10
  %53 = load ptr, ptr %5, align 8, !tbaa !3
  %54 = call i32 @VP8ExitCritical(ptr noundef %52, ptr noundef %53)
  %55 = load i32, ptr %6, align 4, !tbaa !8
  %56 = and i32 %55, %54
  store i32 %56, ptr %6, align 4, !tbaa !8
  br label %57

57:                                               ; preds = %51, %29
  %58 = load i32, ptr %6, align 4, !tbaa !8
  %59 = icmp ne i32 %58, 0
  br i1 %59, label %62, label %60

60:                                               ; preds = %57
  %61 = load ptr, ptr %4, align 8, !tbaa !10
  call void @VP8Clear(ptr noundef %61)
  store i32 0, ptr %3, align 4
  store i32 1, ptr %7, align 4
  br label %66

62:                                               ; preds = %57
  %63 = load ptr, ptr %4, align 8, !tbaa !10
  %64 = getelementptr inbounds nuw %struct.VP8Decoder, ptr %63, i32 0, i32 1
  store i32 0, ptr %64, align 4, !tbaa !14
  %65 = load i32, ptr %6, align 4, !tbaa !8
  store i32 %65, ptr %3, align 4
  store i32 1, ptr %7, align 4
  br label %66

66:                                               ; preds = %62, %60, %27, %14, %10
  call void @llvm.lifetime.end.p0(i64 4, ptr %6) #8
  %67 = load i32, ptr %3, align 4
  ret i32 %67
}