; Function Attrs: nounwind uwtable
define hidden range(i32 0, 2) i32 @VP8Decode(ptr noundef %0, ptr noundef %1) local_unnamed_addr #3 {
  %3 = icmp eq ptr %0, null
  br i1 %3, label %VP8SetError.exit, label %4

4:                                                ; preds = %2
  %5 = icmp eq ptr %1, null
  br i1 %5, label %6, label %12

6:                                                ; preds = %4
  %7 = load i32, ptr %0, align 8, !tbaa !3
  %8 = icmp eq i32 %7, 0
  br i1 %8, label %9, label %VP8SetError.exit

9:                                                ; preds = %6
  store i32 2, ptr %0, align 8, !tbaa !3
  %10 = getelementptr inbounds nuw i8, ptr %0, i64 8
  store ptr @.str.13, ptr %10, align 8, !tbaa !23
  %11 = getelementptr inbounds nuw i8, ptr %0, i64 4
  store i32 0, ptr %11, align 4, !tbaa !26
  br label %VP8SetError.exit

12:                                               ; preds = %4
  %13 = getelementptr inbounds nuw i8, ptr %0, i64 4
  %14 = load i32, ptr %13, align 4, !tbaa !26
  %.not = icmp eq i32 %14, 0
  br i1 %.not, label %15, label %17

15:                                               ; preds = %12
  %16 = tail call i32 @VP8GetHeaders(ptr noundef nonnull %0, ptr noundef nonnull %1)
  %.not26 = icmp eq i32 %16, 0
  br i1 %.not26, label %VP8SetError.exit, label %17

17:                                               ; preds = %15, %12
  %18 = tail call i32 @VP8EnterCritical(ptr noundef nonnull %0, ptr noundef nonnull %1) #13
  %19 = icmp eq i32 %18, 0
  br i1 %19, label %20, label %VP8Clear.exit

20:                                               ; preds = %17
  %21 = tail call i32 @VP8InitFrame(ptr noundef nonnull %0, ptr noundef nonnull %1) #13
  %.not27 = icmp eq i32 %21, 0
  br i1 %.not27, label %82, label %22

22:                                               ; preds = %20
  %23 = getelementptr inbounds nuw i8, ptr %0, i64 2908
  %24 = getelementptr inbounds nuw i8, ptr %0, i64 428
  store i32 0, ptr %23, align 4, !tbaa !102
  %25 = load i32, ptr %24, align 4, !tbaa !103
  %26 = icmp sgt i32 %25, 0
  br i1 %26, label %.lr.ph35.i, label %._crit_edge36.i

.lr.ph35.i:                                       ; preds = %22
  %27 = getelementptr inbounds nuw i8, ptr %0, i64 440
  %28 = getelementptr inbounds nuw i8, ptr %0, i64 432
  %29 = getelementptr inbounds nuw i8, ptr %0, i64 16
  %30 = getelementptr inbounds nuw i8, ptr %0, i64 2904
  %31 = getelementptr inbounds nuw i8, ptr %0, i64 408
  %32 = getelementptr inbounds nuw i8, ptr %0, i64 2832
  %33 = getelementptr inbounds nuw i8, ptr %0, i64 2816
  br label %34

34:                                               ; preds = %VP8SetError.exit.i, %.lr.ph35.i
  %storemerge33.i = phi i32 [ 0, %.lr.ph35.i ], [ %69, %VP8SetError.exit.i ]
  %35 = load i32, ptr %28, align 8, !tbaa !27
  %36 = and i32 %35, %storemerge33.i
  %37 = zext i32 %36 to i64
  %38 = getelementptr inbounds nuw [8 x %struct.VP8BitReader], ptr %27, i64 0, i64 %37
  %39 = tail call i32 @VP8ParseIntraModeRow(ptr noundef nonnull %29, ptr noundef nonnull %0) #13
  %.not25.i = icmp eq i32 %39, 0
  br i1 %.not25.i, label %43, label %.preheader.i

.preheader.i:                                     ; preds = %34
  %40 = load i32, ptr %30, align 8, !tbaa !77
  %41 = load i32, ptr %31, align 8, !tbaa !43
  %42 = icmp slt i32 %40, %41
  br i1 %42, label %.lr.ph.i, label %._crit_edge.i

43:                                               ; preds = %34
  %44 = load i32, ptr %0, align 8, !tbaa !3
  %45 = icmp eq i32 %44, 0
  br i1 %45, label %46, label %82

46:                                               ; preds = %43
  store i32 7, ptr %0, align 8, !tbaa !3
  %47 = getelementptr inbounds nuw i8, ptr %0, i64 8
  store ptr @.str.14, ptr %47, align 8, !tbaa !23
  store i32 0, ptr %13, align 4, !tbaa !26
  br label %82

.lr.ph.i:                                         ; preds = %.preheader.i, %54
  %48 = tail call i32 @VP8DecodeMB(ptr noundef nonnull %0, ptr noundef nonnull %38)
  %.not27.i = icmp eq i32 %48, 0
  br i1 %.not27.i, label %49, label %54

49:                                               ; preds = %.lr.ph.i
  %50 = load i32, ptr %0, align 8, !tbaa !3
  %51 = icmp eq i32 %50, 0
  br i1 %51, label %52, label %82

52:                                               ; preds = %49
  store i32 7, ptr %0, align 8, !tbaa !3
  %53 = getelementptr inbounds nuw i8, ptr %0, i64 8
  store ptr @.str.15, ptr %53, align 8, !tbaa !23
  store i32 0, ptr %13, align 4, !tbaa !26
  br label %82

54:                                               ; preds = %.lr.ph.i
  %55 = load i32, ptr %30, align 8, !tbaa !77
  %56 = add nsw i32 %55, 1
  store i32 %56, ptr %30, align 8, !tbaa !77
  %57 = load i32, ptr %31, align 8, !tbaa !43
  %58 = icmp slt i32 %56, %57
  br i1 %58, label %.lr.ph.i, label %._crit_edge.i, !llvm.loop !104

._crit_edge.i:                                    ; preds = %54, %.preheader.i
  %59 = load ptr, ptr %32, align 8, !tbaa !76
  %60 = getelementptr inbounds i8, ptr %59, i64 -2
  store i8 0, ptr %60, align 1, !tbaa !88
  %61 = getelementptr inbounds i8, ptr %59, i64 -1
  store i8 0, ptr %61, align 1, !tbaa !84
  store i32 0, ptr %33, align 8
  store i32 0, ptr %30, align 8, !tbaa !77
  %62 = tail call i32 @VP8ProcessRow(ptr noundef nonnull %0, ptr noundef nonnull %1) #13
  %.not26.i = icmp eq i32 %62, 0
  br i1 %.not26.i, label %63, label %VP8SetError.exit.i

63:                                               ; preds = %._crit_edge.i
  %64 = load i32, ptr %0, align 8, !tbaa !3
  %65 = icmp eq i32 %64, 0
  br i1 %65, label %66, label %82

66:                                               ; preds = %63
  store i32 6, ptr %0, align 8, !tbaa !3
  %67 = getelementptr inbounds nuw i8, ptr %0, i64 8
  store ptr @.str.16, ptr %67, align 8, !tbaa !23
  store i32 0, ptr %13, align 4, !tbaa !26
  br label %82

VP8SetError.exit.i:                               ; preds = %._crit_edge.i
  %68 = load i32, ptr %23, align 4, !tbaa !102
  %69 = add nsw i32 %68, 1
  store i32 %69, ptr %23, align 4, !tbaa !102
  %70 = load i32, ptr %24, align 4, !tbaa !103
  %71 = icmp slt i32 %69, %70
  br i1 %71, label %34, label %._crit_edge36.i, !llvm.loop !105

._crit_edge36.i:                                  ; preds = %VP8SetError.exit.i, %22
  %72 = getelementptr inbounds nuw i8, ptr %0, i64 200
  %73 = load i32, ptr %72, align 8, !tbaa !106
  %74 = icmp sgt i32 %73, 0
  br i1 %74, label %75, label %81

75:                                               ; preds = %._crit_edge36.i
  %76 = tail call ptr @WebPGetWorkerInterface() #13
  %77 = getelementptr inbounds nuw i8, ptr %76, i64 16
  %78 = load ptr, ptr %77, align 8, !tbaa !107
  %79 = getelementptr inbounds nuw i8, ptr %0, i64 152
  %80 = tail call i32 %78(ptr noundef nonnull %79) #13
  %.not.i = icmp eq i32 %80, 0
  br i1 %.not.i, label %82, label %81

81:                                               ; preds = %75, %._crit_edge36.i
  br label %82

82:                                               ; preds = %20, %43, %46, %49, %52, %63, %66, %75, %81
  %.2 = phi i32 [ 0, %20 ], [ 1, %81 ], [ 0, %75 ], [ 0, %43 ], [ 0, %46 ], [ 0, %49 ], [ 0, %52 ], [ 0, %63 ], [ 0, %66 ]
  %83 = tail call i32 @VP8ExitCritical(ptr noundef nonnull %0, ptr noundef nonnull %1) #13
  %84 = and i32 %83, %.2
  %.not28 = icmp eq i32 %84, 0
  br i1 %.not28, label %VP8Clear.exit, label %92

VP8Clear.exit:                                    ; preds = %17, %82
  %85 = tail call ptr @WebPGetWorkerInterface() #13
  %86 = getelementptr inbounds nuw i8, ptr %85, i64 40
  %87 = load ptr, ptr %86, align 8, !tbaa !29
  %88 = getelementptr inbounds nuw i8, ptr %0, i64 152
  tail call void %87(ptr noundef nonnull %88) #13
  tail call void @WebPDeallocateAlphaMemory(ptr noundef nonnull %0) #13
  %89 = getelementptr inbounds nuw i8, ptr %0, i64 2888
  %90 = load ptr, ptr %89, align 8, !tbaa !30
  tail call void @WebPSafeFree(ptr noundef %90) #13
  %91 = getelementptr inbounds nuw i8, ptr %0, i64 16
  tail call void @llvm.memset.p0.i64(ptr noundef nonnull align 8 dereferenceable(48) %91, i8 0, i64 48, i1 false)
  store i32 0, ptr %13, align 4, !tbaa !26
  tail call void @llvm.memset.p0.i64(ptr noundef nonnull align 8 dereferenceable(16) %89, i8 0, i64 16, i1 false)
  br label %VP8SetError.exit

92:                                               ; preds = %82
  store i32 0, ptr %13, align 4, !tbaa !26
  br label %VP8SetError.exit

VP8SetError.exit:                                 ; preds = %9, %6, %15, %2, %92, %VP8Clear.exit
  %.022 = phi i32 [ 1, %92 ], [ 0, %VP8Clear.exit ], [ 0, %2 ], [ 0, %15 ], [ 0, %6 ], [ 0, %9 ]
  ret i32 %.022
}